; Function Attrs: mustprogress nounwind
define internal noalias noundef ptr @"_ZN3tbb6detail2d223for_each_root_task_baseIN9__gnu_cxx17__normal_iteratorIPPN4mold3elf10ObjectFileINS6_6RV32LEEEESt6vectorISA_SaISA_EEEEZNS6_21riscv_resize_sectionsITkNS6_8is_riscvES8_EElRNS6_7ContextIT_EEE3$_1SA_E6cancelERNS0_2d114execution_dataE"(ptr nocapture noundef nonnull readonly align 64 dereferenceable(105) %this, ptr nocapture nonnull readnone align 8 %0) unnamed_addr #4 align 2 {
entry:
  %my_wait_context = getelementptr inbounds i8, ptr %this, i64 80
  %1 = load ptr, ptr %my_wait_context, align 16
  %m_ref_count.i.i = getelementptr inbounds i8, ptr %1, i64 8
  %2 = atomicrmw add ptr %m_ref_count.i.i, i64 -1 seq_cst, align 8
  %tobool.not.i.i = icmp eq i64 %2, 1
  br i1 %tobool.not.i.i, label %if.then.i.i, label %_ZN3tbb6detail2d112wait_context7releaseEj.exit

if.then.i.i:                                      ; preds = %entry
  %3 = ptrtoint ptr %1 to i64
  tail call void @_ZN3tbb6detail2r114notify_waitersEm(i64 noundef %3) #21
  br label %_ZN3tbb6detail2d112wait_context7releaseEj.exit

_ZN3tbb6detail2d112wait_context7releaseEj.exit:   ; preds = %entry, %if.then.i.i
  ret ptr null
}